target datalayout = "e-m:e-p270:32:32-p271:32:32-p272:64:64-i64:64-i128:128-f80:128-n8:16:32:64-S128"
target triple = "x86_64-pc-linux-gnu"

%struct._zend_phpdbg_globals = type { [11 x %struct._zend_array], %struct._zend_array, %struct._zend_array, ptr, ptr, %struct.phpdbg_frame_t, i32, ptr, %struct.phpdbg_lexer_data, ptr, %struct.sigaction, i32, i64, %struct.phpdbg_btree, %struct.phpdbg_btree, %struct._zend_array, %struct._zend_array, %struct._zend_array, %struct._zend_array, ptr, ptr, i8, ptr, ptr, ptr, i64, ptr, %struct._zval_struct, i32, i32, i8, i8, ptr, ptr, ptr, %struct._zend_array, ptr, ptr, ptr, [3 x %struct.anon.10], ptr, %struct.anon.11, i64, [2 x ptr], [3 x ptr], ptr, i8, ptr, ptr, [500 x i8], i32, %struct.phpdbg_signal_safe_mem, ptr, i64, ptr, i64 }
%struct.phpdbg_frame_t = type { i32, ptr, ptr }
%struct.phpdbg_lexer_data = type { i32, ptr, ptr, ptr, ptr, i32 }
%struct.sigaction = type { %union.anon.4, %struct.__sigset_t, i32, ptr }
%union.anon.4 = type { ptr }
%struct.__sigset_t = type { [16 x i64] }
%struct.phpdbg_btree = type { i64, i64, i8, ptr }
%struct._zval_struct = type { %union._zend_value, %union.anon.6, %union.anon.9 }
%union._zend_value = type { i64 }
%union.anon.6 = type { i32 }
%union.anon.9 = type { i32 }
%struct._zend_array = type { %struct._zend_refcounted_h, %union.anon.1, i32, %union.anon.3, i32, i32, i32, i32, i64, ptr }
%struct._zend_refcounted_h = type { i32, %union.anon }
%union.anon = type { i32 }
%union.anon.1 = type { i32 }
%union.anon.3 = type { ptr }
%struct.anon.10 = type { i32 }
%struct.anon.11 = type { i8, i32, i32, ptr, i32 }
%struct.phpdbg_signal_safe_mem = type { ptr, i8, ptr, ptr }

@.str.10 = private unnamed_addr constant [3 x i8] c"%s\00", align 1
@phpdbg_globals = external global %struct._zend_phpdbg_globals, align 8
@.str.44 = private unnamed_addr constant [17 x i8] c" (type y or n): \00", align 1
@.str.45 = private unnamed_addr constant [40 x i8] c"Please enter either y (yes) or n (no): \00", align 1

; Function Attrs: nounwind uwtable
define i32 @phpdbg_ask_user_permission(ptr noundef %0) #0 {
  %2 = alloca i32, align 4
  %3 = alloca ptr, align 8
  %4 = alloca [500 x i8], align 16
  store ptr %0, ptr %3, align 8
  %5 = load i32, ptr getelementptr inbounds (%struct._zend_phpdbg_globals, ptr @phpdbg_globals, i32 0, i32 39, i64 1), align 4
  %6 = load ptr, ptr %3, align 8
  %7 = call i32 (i32, ptr, ...) @phpdbg_out_internal(i32 noundef %5, ptr noundef @.str.10, ptr noundef %6)
  %8 = load i32, ptr getelementptr inbounds (%struct._zend_phpdbg_globals, ptr @phpdbg_globals, i32 0, i32 39, i64 1), align 4
  %9 = call i32 (i32, ptr, ...) @phpdbg_out_internal(i32 noundef %8, ptr noundef @.str.44)
  br label %10

10:                                               ; preds = %44, %1
  %11 = getelementptr inbounds [500 x i8], ptr %4, i64 0, i64 0
  %12 = call i32 @phpdbg_consume_stdin_line(ptr noundef %11)
  %13 = getelementptr inbounds [500 x i8], ptr %4, i64 0, i64 1
  %14 = load i8, ptr %13, align 1
  %15 = sext i8 %14 to i32
  %16 = icmp eq i32 %15, 10
  br i1 %16, label %27, label %17

17:                                               ; preds = %10
  %18 = getelementptr inbounds [500 x i8], ptr %4, i64 0, i64 1
  %19 = load i8, ptr %18, align 1
  %20 = sext i8 %19 to i32
  %21 = icmp eq i32 %20, 13
  br i1 %21, label %22, label %44

22:                                               ; preds = %17
  %23 = getelementptr inbounds [500 x i8], ptr %4, i64 0, i64 2
  %24 = load i8, ptr %23, align 2
  %25 = sext i8 %24 to i32
  %26 = icmp eq i32 %25, 10
  br i1 %26, label %27, label %44

27:                                               ; preds = %22, %10
  %28 = getelementptr inbounds [500 x i8], ptr %4, i64 0, i64 0
  %29 = load i8, ptr %28, align 16
  %30 = sext i8 %29 to i32
  %31 = icmp eq i32 %30, 121
  br i1 %31, label %37, label %32

32:                                               ; preds = %27
  %33 = getelementptr inbounds [500 x i8], ptr %4, i64 0, i64 0
  %34 = load i8, ptr %33, align 16
  %35 = sext i8 %34 to i32
  %36 = icmp eq i32 %35, 110
  br i1 %36, label %37, label %44

37:                                               ; preds = %32, %27
  %38 = getelementptr inbounds [500 x i8], ptr %4, i64 0, i64 0
  %39 = load i8, ptr %38, align 16
  %40 = sext i8 %39 to i32
  %41 = icmp eq i32 %40, 121
  br i1 %41, label %42, label %43

42:                                               ; preds = %37
  store i32 0, ptr %2, align 4
  br label %47

43:                                               ; preds = %37
  store i32 -1, ptr %2, align 4
  br label %47

44:                                               ; preds = %32, %22, %17
  %45 = load i32, ptr getelementptr inbounds (%struct._zend_phpdbg_globals, ptr @phpdbg_globals, i32 0, i32 39, i64 1), align 4
  %46 = call i32 (i32, ptr, ...) @phpdbg_out_internal(i32 noundef %45, ptr noundef @.str.45)
  br label %10

47:                                               ; preds = %43, %42
  %48 = load i32, ptr %2, align 4
  ret i32 %48
}