; Function Attrs: nounwind uwtable
define noundef i32 @phpdbg_ask_user_permission(ptr noundef %0) local_unnamed_addr #1 {
  %2 = alloca [500 x i8], align 16
  %3 = load i32, ptr getelementptr inbounds (%struct._zend_phpdbg_globals, ptr @phpdbg_globals, i64 0, i32 39, i64 1), align 4
  %4 = tail call i32 (i32, ptr, ...) @phpdbg_out_internal(i32 noundef %3, ptr noundef nonnull @.str.10, ptr noundef %0) #22
  %5 = load i32, ptr getelementptr inbounds (%struct._zend_phpdbg_globals, ptr @phpdbg_globals, i64 0, i32 39, i64 1), align 4
  %6 = tail call i32 (i32, ptr, ...) @phpdbg_out_internal(i32 noundef %5, ptr noundef nonnull @.str.44) #22
  %7 = getelementptr inbounds i8, ptr %2, i64 1
  %8 = getelementptr inbounds i8, ptr %2, i64 2
  br label %9

9:                                                ; preds = %19, %1
  %10 = call i32 @phpdbg_consume_stdin_line(ptr noundef nonnull %2) #22
  %11 = load i8, ptr %7, align 1
  %12 = icmp eq i8 %11, 10
  br i1 %12, label %17, label %13

13:                                               ; preds = %9
  %14 = icmp eq i8 %11, 13
  %15 = load i8, ptr %8, align 2
  %16 = icmp eq i8 %15, 10
  %or.cond = select i1 %14, i1 %16, i1 false
  br i1 %or.cond, label %17, label %19

17:                                               ; preds = %13, %9
  %18 = load i8, ptr %2, align 16
  switch i8 %18, label %19 [
    i8 121, label %.loopexit.loopexit
    i8 110, label %.loopexit
  ]

19:                                               ; preds = %17, %13
  %20 = load i32, ptr getelementptr inbounds (%struct._zend_phpdbg_globals, ptr @phpdbg_globals, i64 0, i32 39, i64 1), align 4
  %21 = call i32 (i32, ptr, ...) @phpdbg_out_internal(i32 noundef %20, ptr noundef nonnull @.str.45) #22
  br label %9

.loopexit.loopexit:                               ; preds = %17
  br label %.loopexit

.loopexit:                                        ; preds = %17, %.loopexit.loopexit
  %.0 = phi i32 [ 0, %.loopexit.loopexit ], [ -1, %17 ]
  ret i32 %.0
}